target datalayout = "e-m:e-p270:32:32-p271:32:32-p272:64:64-i64:64-i128:128-f80:128-n8:16:32:64-S128"
target triple = "x86_64-pc-linux-gnu"

%struct.AudioEchoContext = type { ptr, float, float, ptr, ptr, ptr, ptr, i32, i32, ptr, i32, i32, ptr, i32, i64, ptr }

; Function Attrs: alwaysinline nounwind willreturn memory(none) uwtable
define internal double @av_clipd_c(double noundef %0, double noundef %1, double noundef %2) #5 {
  %4 = alloca double, align 8
  %5 = alloca double, align 8
  %6 = alloca double, align 8
  store double %0, ptr %4, align 8, !tbaa !67
  store double %1, ptr %5, align 8, !tbaa !67
  store double %2, ptr %6, align 8, !tbaa !67
  %7 = load double, ptr %4, align 8, !tbaa !67
  %8 = load double, ptr %5, align 8, !tbaa !67
  %9 = fcmp nsz ogt double %7, %8
  br i1 %9, label %10, label %12

10:                                               ; preds = %3
  %11 = load double, ptr %4, align 8, !tbaa !67
  br label %14

12:                                               ; preds = %3
  %13 = load double, ptr %5, align 8, !tbaa !67
  br label %14

14:                                               ; preds = %12, %10
  %15 = phi nsz double [ %11, %10 ], [ %13, %12 ]
  %16 = load double, ptr %6, align 8, !tbaa !67
  %17 = fcmp nsz ogt double %15, %16
  br i1 %17, label %18, label %20

18:                                               ; preds = %14
  %19 = load double, ptr %6, align 8, !tbaa !67
  br label %30

20:                                               ; preds = %14
  %21 = load double, ptr %4, align 8, !tbaa !67
  %22 = load double, ptr %5, align 8, !tbaa !67
  %23 = fcmp nsz ogt double %21, %22
  br i1 %23, label %24, label %26

24:                                               ; preds = %20
  %25 = load double, ptr %4, align 8, !tbaa !67
  br label %28

26:                                               ; preds = %20
  %27 = load double, ptr %5, align 8, !tbaa !67
  br label %28

28:                                               ; preds = %26, %24
  %29 = phi nsz double [ %25, %24 ], [ %27, %26 ]
  br label %30

30:                                               ; preds = %28, %18
  %31 = phi nsz double [ %19, %18 ], [ %29, %28 ]
  ret double %31
}

; Function Attrs: nounwind uwtable
define internal void @echo_samples_fltp(ptr noundef %0, ptr noundef %1, ptr noundef %2, ptr noundef %3, i32 noundef %4, i32 noundef %5) #1 {
  %7 = alloca ptr, align 8
  %8 = alloca ptr, align 8
  %9 = alloca ptr, align 8
  %10 = alloca ptr, align 8
  %11 = alloca i32, align 4
  %12 = alloca i32, align 4
  %13 = alloca double, align 8
  %14 = alloca double, align 8
  %15 = alloca i32, align 4
  %16 = alloca i32, align 4
  %17 = alloca i32, align 4
  %18 = alloca i32, align 4
  %19 = alloca i32, align 4
  %20 = alloca i32, align 4
  %21 = alloca ptr, align 8
  %22 = alloca ptr, align 8
  %23 = alloca ptr, align 8
  %24 = alloca double, align 8
  %25 = alloca double, align 8
  %26 = alloca i32, align 4
  store ptr %0, ptr %7, align 8, !tbaa !22
  store ptr %1, ptr %8, align 8, !tbaa !66
  store ptr %2, ptr %9, align 8, !tbaa !66
  store ptr %3, ptr %10, align 8, !tbaa !66
  store i32 %4, ptr %11, align 4, !tbaa !33
  store i32 %5, ptr %12, align 4, !tbaa !33
  call void @llvm.lifetime.start.p0(i64 8, ptr %13) #8
  %27 = load ptr, ptr %7, align 8, !tbaa !22
  %28 = getelementptr inbounds nuw %struct.AudioEchoContext, ptr %27, i32 0, i32 2
  %29 = load float, ptr %28, align 4, !tbaa !62
  %30 = fpext nsz float %29 to double
  store double %30, ptr %13, align 8, !tbaa !67
  call void @llvm.lifetime.start.p0(i64 8, ptr %14) #8
  %31 = load ptr, ptr %7, align 8, !tbaa !22
  %32 = getelementptr inbounds nuw %struct.AudioEchoContext, ptr %31, i32 0, i32 1
  %33 = load float, ptr %32, align 8, !tbaa !61
  %34 = fpext nsz float %33 to double
  store double %34, ptr %14, align 8, !tbaa !67
  call void @llvm.lifetime.start.p0(i64 4, ptr %15) #8
  %35 = load ptr, ptr %7, align 8, !tbaa !22
  %36 = getelementptr inbounds nuw %struct.AudioEchoContext, ptr %35, i32 0, i32 7
  %37 = load i32, ptr %36, align 8, !tbaa !35
  store i32 %37, ptr %15, align 4, !tbaa !33
  call void @llvm.lifetime.start.p0(i64 4, ptr %16) #8
  %38 = load ptr, ptr %7, align 8, !tbaa !22
  %39 = getelementptr inbounds nuw %struct.AudioEchoContext, ptr %38, i32 0, i32 10
  %40 = load i32, ptr %39, align 8, !tbaa !59
  store i32 %40, ptr %16, align 4, !tbaa !33
  call void @llvm.lifetime.start.p0(i64 4, ptr %17) #8
  call void @llvm.lifetime.start.p0(i64 4, ptr %18) #8
  call void @llvm.lifetime.start.p0(i64 4, ptr %19) #8
  call void @llvm.lifetime.start.p0(i64 4, ptr %20) #8
  %41 = load i32, ptr %20, align 4, !tbaa !33
  store i32 %41, ptr %20, align 4, !tbaa !33
  store i32 0, ptr %19, align 4, !tbaa !33
  br label %42

42:                                               ; preds = %158, %6
  %43 = load i32, ptr %19, align 4, !tbaa !33
  %44 = load i32, ptr %12, align 4, !tbaa !33
  %45 = icmp slt i32 %43, %44
  br i1 %45, label %46, label %161

46:                                               ; preds = %42
  call void @llvm.lifetime.start.p0(i64 8, ptr %21) #8
  %47 = load ptr, ptr %9, align 8, !tbaa !66
  %48 = load i32, ptr %19, align 4, !tbaa !33
  %49 = sext i32 %48 to i64
  %50 = getelementptr inbounds ptr, ptr %47, i64 %49
  %51 = load ptr, ptr %50, align 8, !tbaa !69
  store ptr %51, ptr %21, align 8, !tbaa !75
  call void @llvm.lifetime.start.p0(i64 8, ptr %22) #8
  %52 = load ptr, ptr %10, align 8, !tbaa !66
  %53 = load i32, ptr %19, align 4, !tbaa !33
  %54 = sext i32 %53 to i64
  %55 = getelementptr inbounds ptr, ptr %52, i64 %54
  %56 = load ptr, ptr %55, align 8, !tbaa !69
  store ptr %56, ptr %22, align 8, !tbaa !75
  call void @llvm.lifetime.start.p0(i64 8, ptr %23) #8
  %57 = load ptr, ptr %8, align 8, !tbaa !66
  %58 = load i32, ptr %19, align 4, !tbaa !33
  %59 = sext i32 %58 to i64
  %60 = getelementptr inbounds ptr, ptr %57, i64 %59
  %61 = load ptr, ptr %60, align 8, !tbaa !69
  store ptr %61, ptr %23, align 8, !tbaa !75
  %62 = load ptr, ptr %7, align 8, !tbaa !22
  %63 = getelementptr inbounds nuw %struct.AudioEchoContext, ptr %62, i32 0, i32 8
  %64 = load i32, ptr %63, align 4, !tbaa !71
  store i32 %64, ptr %20, align 4, !tbaa !33
  store i32 0, ptr %17, align 4, !tbaa !33
  br label %65

65:                                               ; preds = %150, %46
  %66 = load i32, ptr %17, align 4, !tbaa !33
  %67 = load i32, ptr %11, align 4, !tbaa !33
  %68 = icmp slt i32 %66, %67
  br i1 %68, label %69, label %157

69:                                               ; preds = %65
  call void @llvm.lifetime.start.p0(i64 8, ptr %24) #8
  call void @llvm.lifetime.start.p0(i64 8, ptr %25) #8
  %70 = load ptr, ptr %21, align 8, !tbaa !75
  %71 = load float, ptr %70, align 4, !tbaa !37
  %72 = fpext nsz float %71 to double
  store double %72, ptr %25, align 8, !tbaa !67
  %73 = load double, ptr %25, align 8, !tbaa !67
  %74 = load double, ptr %14, align 8, !tbaa !67
  %75 = fmul nsz double %73, %74
  store double %75, ptr %24, align 8, !tbaa !67
  store i32 0, ptr %18, align 4, !tbaa !33
  br label %76

76:                                               ; preds = %119, %69
  %77 = load i32, ptr %18, align 4, !tbaa !33
  %78 = load i32, ptr %15, align 4, !tbaa !33
  %79 = icmp slt i32 %77, %78
  br i1 %79, label %80, label %122

80:                                               ; preds = %76
  call void @llvm.lifetime.start.p0(i64 4, ptr %26) #8
  %81 = load i32, ptr %20, align 4, !tbaa !33
  %82 = load i32, ptr %16, align 4, !tbaa !33
  %83 = add nsw i32 %81, %82
  %84 = load ptr, ptr %7, align 8, !tbaa !22
  %85 = getelementptr inbounds nuw %struct.AudioEchoContext, ptr %84, i32 0, i32 12
  %86 = load ptr, ptr %85, align 8, !tbaa !36
  %87 = load i32, ptr %18, align 4, !tbaa !33
  %88 = sext i32 %87 to i64
  %89 = getelementptr inbounds i32, ptr %86, i64 %88
  %90 = load i32, ptr %89, align 4, !tbaa !33
  %91 = sub nsw i32 %83, %90
  store i32 %91, ptr %26, align 4, !tbaa !33
  %92 = load i32, ptr %26, align 4, !tbaa !33
  %93 = load i32, ptr %16, align 4, !tbaa !33
  %94 = icmp sge i32 %92, %93
  br i1 %94, label %95, label %99

95:                                               ; preds = %80
  %96 = load i32, ptr %26, align 4, !tbaa !33
  %97 = load i32, ptr %16, align 4, !tbaa !33
  %98 = sub nsw i32 %96, %97
  br label %101

99:                                               ; preds = %80
  %100 = load i32, ptr %26, align 4, !tbaa !33
  br label %101

101:                                              ; preds = %99, %95
  %102 = phi i32 [ %98, %95 ], [ %100, %99 ]
  store i32 %102, ptr %26, align 4, !tbaa !33
  %103 = load ptr, ptr %23, align 8, !tbaa !75
  %104 = load i32, ptr %26, align 4, !tbaa !33
  %105 = sext i32 %104 to i64
  %106 = getelementptr inbounds float, ptr %103, i64 %105
  %107 = load float, ptr %106, align 4, !tbaa !37
  %108 = load ptr, ptr %7, align 8, !tbaa !22
  %109 = getelementptr inbounds nuw %struct.AudioEchoContext, ptr %108, i32 0, i32 6
  %110 = load ptr, ptr %109, align 8, !tbaa !34
  %111 = load i32, ptr %18, align 4, !tbaa !33
  %112 = sext i32 %111 to i64
  %113 = getelementptr inbounds float, ptr %110, i64 %112
  %114 = load float, ptr %113, align 4, !tbaa !37
  %115 = fmul nsz float %107, %114
  %116 = fpext nsz float %115 to double
  %117 = load double, ptr %24, align 8, !tbaa !67
  %118 = fadd nsz double %117, %116
  store double %118, ptr %24, align 8, !tbaa !67
  call void @llvm.lifetime.end.p0(i64 4, ptr %26) #8
  br label %119

119:                                              ; preds = %101
  %120 = load i32, ptr %18, align 4, !tbaa !33
  %121 = add nsw i32 %120, 1
  store i32 %121, ptr %18, align 4, !tbaa !33
  br label %76, !llvm.loop !76

122:                                              ; preds = %76
  %123 = load double, ptr %13, align 8, !tbaa !67
  %124 = load double, ptr %24, align 8, !tbaa !67
  %125 = fmul nsz double %124, %123
  store double %125, ptr %24, align 8, !tbaa !67
  %126 = load double, ptr %24, align 8, !tbaa !67
  %127 = call nsz double @av_clipd_c(double noundef %126, double noundef -1.000000e+00, double noundef 1.000000e+00) #9
  %128 = fptrunc nsz double %127 to float
  %129 = load ptr, ptr %22, align 8, !tbaa !75
  store float %128, ptr %129, align 4, !tbaa !37
  %130 = load double, ptr %25, align 8, !tbaa !67
  %131 = fptrunc nsz double %130 to float
  %132 = load ptr, ptr %23, align 8, !tbaa !75
  %133 = load i32, ptr %20, align 4, !tbaa !33
  %134 = sext i32 %133 to i64
  %135 = getelementptr inbounds float, ptr %132, i64 %134
  store float %131, ptr %135, align 4, !tbaa !37
  %136 = load i32, ptr %20, align 4, !tbaa !33
  %137 = add nsw i32 %136, 1
  %138 = load i32, ptr %16, align 4, !tbaa !33
  %139 = icmp sge i32 %137, %138
  br i1 %139, label %140, label %145

140:                                              ; preds = %122
  %141 = load i32, ptr %20, align 4, !tbaa !33
  %142 = add nsw i32 %141, 1
  %143 = load i32, ptr %16, align 4, !tbaa !33
  %144 = sub nsw i32 %142, %143
  br label %148

145:                                              ; preds = %122
  %146 = load i32, ptr %20, align 4, !tbaa !33
  %147 = add nsw i32 %146, 1
  br label %148

148:                                              ; preds = %145, %140
  %149 = phi i32 [ %144, %140 ], [ %147, %145 ]
  store i32 %149, ptr %20, align 4, !tbaa !33
  call void @llvm.lifetime.end.p0(i64 8, ptr %25) #8
  call void @llvm.lifetime.end.p0(i64 8, ptr %24) #8
  br label %150

150:                                              ; preds = %148
  %151 = load i32, ptr %17, align 4, !tbaa !33
  %152 = add nsw i32 %151, 1
  store i32 %152, ptr %17, align 4, !tbaa !33
  %153 = load ptr, ptr %21, align 8, !tbaa !75
  %154 = getelementptr inbounds nuw float, ptr %153, i32 1
  store ptr %154, ptr %21, align 8, !tbaa !75
  %155 = load ptr, ptr %22, align 8, !tbaa !75
  %156 = getelementptr inbounds nuw float, ptr %155, i32 1
  store ptr %156, ptr %22, align 8, !tbaa !75
  br label %65, !llvm.loop !77

157:                                              ; preds = %65
  call void @llvm.lifetime.end.p0(i64 8, ptr %23) #8
  call void @llvm.lifetime.end.p0(i64 8, ptr %22) #8
  call void @llvm.lifetime.end.p0(i64 8, ptr %21) #8
  br label %158

158:                                              ; preds = %157
  %159 = load i32, ptr %19, align 4, !tbaa !33
  %160 = add nsw i32 %159, 1
  store i32 %160, ptr %19, align 4, !tbaa !33
  br label %42, !llvm.loop !78

161:                                              ; preds = %42
  %162 = load i32, ptr %20, align 4, !tbaa !33
  %163 = load ptr, ptr %7, align 8, !tbaa !22
  %164 = getelementptr inbounds nuw %struct.AudioEchoContext, ptr %163, i32 0, i32 8
  store i32 %162, ptr %164, align 4, !tbaa !71
  call void @llvm.lifetime.end.p0(i64 4, ptr %20) #8
  call void @llvm.lifetime.end.p0(i64 4, ptr %19) #8
  call void @llvm.lifetime.end.p0(i64 4, ptr %18) #8
  call void @llvm.lifetime.end.p0(i64 4, ptr %17) #8
  call void @llvm.lifetime.end.p0(i64 4, ptr %16) #8
  call void @llvm.lifetime.end.p0(i64 4, ptr %15) #8
  call void @llvm.lifetime.end.p0(i64 8, ptr %14) #8
  call void @llvm.lifetime.end.p0(i64 8, ptr %13) #8
  ret void
}