; Function Attrs: nofree norecurse nosync nounwind memory(readwrite, inaccessiblemem: none) uwtable
define internal void @echo_samples_fltp(ptr noundef captures(none) %0, ptr noundef readonly captures(none) %1, ptr noundef readonly captures(none) %2, ptr noundef readonly captures(none) %3, i32 noundef %4, i32 noundef %5) #4 {
  %7 = getelementptr inbounds nuw i8, ptr %0, i64 12
  %8 = load float, ptr %7, align 4, !tbaa !71
  %9 = fpext nsz float %8 to double
  %10 = getelementptr inbounds nuw i8, ptr %0, i64 8
  %11 = load float, ptr %10, align 8, !tbaa !70
  %12 = fpext nsz float %11 to double
  %13 = getelementptr inbounds nuw i8, ptr %0, i64 48
  %14 = load i32, ptr %13, align 8, !tbaa !34
  %15 = getelementptr inbounds nuw i8, ptr %0, i64 64
  %16 = load i32, ptr %15, align 8, !tbaa !68
  %17 = icmp sgt i32 %5, 0
  br i1 %17, label %.lr.ph, label %._crit_edge

.lr.ph:                                           ; preds = %6
  %18 = getelementptr inbounds nuw i8, ptr %0, i64 52
  %19 = load i32, ptr %18, align 4, !tbaa !73
  %20 = icmp sgt i32 %4, 0
  %21 = getelementptr inbounds nuw i8, ptr %0, i64 72
  %22 = getelementptr inbounds nuw i8, ptr %0, i64 40
  br i1 %20, label %.lr.ph.split.us, label %._crit_edge

.lr.ph.split.us:                                  ; preds = %.lr.ph
  %23 = icmp sgt i32 %14, 0
  br i1 %23, label %.lr.ph.split.us.split.us, label %.lr.ph70.us.preheader

.lr.ph70.us.preheader:                            ; preds = %.lr.ph.split.us
  %wide.trip.count = zext nneg i32 %5 to i64
  br label %.lr.ph70.us

.lr.ph.split.us.split.us:                         ; preds = %.lr.ph.split.us
  %24 = load ptr, ptr %21, align 8, !tbaa !35
  %25 = load ptr, ptr %22, align 8, !tbaa !32
  %wide.trip.count100 = zext nneg i32 %5 to i64
  %wide.trip.count94 = zext nneg i32 %14 to i64
  br label %.lr.ph70.us.us

.lr.ph70.us.us:                                   ; preds = %._crit_edge71.split.us.us.us, %.lr.ph.split.us.split.us
  %indvars.iv97 = phi i64 [ %indvars.iv.next98, %._crit_edge71.split.us.us.us ], [ 0, %.lr.ph.split.us.split.us ]
  %26 = getelementptr inbounds nuw ptr, ptr %2, i64 %indvars.iv97
  %27 = load ptr, ptr %26, align 8, !tbaa !74
  %28 = getelementptr inbounds nuw ptr, ptr %3, i64 %indvars.iv97
  %29 = load ptr, ptr %28, align 8, !tbaa !74
  %30 = getelementptr inbounds nuw ptr, ptr %1, i64 %indvars.iv97
  %31 = load ptr, ptr %30, align 8, !tbaa !74
  br label %.lr.ph.us.us.us

.lr.ph.us.us.us:                                  ; preds = %._crit_edge.us.us.us, %.lr.ph70.us.us
  %.068.us.us.us = phi i32 [ 0, %.lr.ph70.us.us ], [ %60, %._crit_edge.us.us.us ]
  %.05667.us.us.us = phi ptr [ %29, %.lr.ph70.us.us ], [ %62, %._crit_edge.us.us.us ]
  %.05766.us.us.us = phi ptr [ %27, %.lr.ph70.us.us ], [ %61, %._crit_edge.us.us.us ]
  %.165.us.us.us = phi i32 [ %19, %.lr.ph70.us.us ], [ %59, %._crit_edge.us.us.us ]
  %32 = load float, ptr %.05766.us.us.us, align 4, !tbaa !36
  %33 = fpext nsz float %32 to double
  %34 = fmul nsz double %12, %33
  %35 = add nsw i32 %.165.us.us.us, %16
  br label %36

36:                                               ; preds = %36, %.lr.ph.us.us.us
  %indvars.iv91 = phi i64 [ %indvars.iv.next92, %36 ], [ 0, %.lr.ph.us.us.us ]
  %.05463.us.us.us = phi double [ %49, %36 ], [ %34, %.lr.ph.us.us.us ]
  %37 = getelementptr inbounds nuw i32, ptr %24, i64 %indvars.iv91
  %38 = load i32, ptr %37, align 4, !tbaa !33
  %39 = sub i32 %35, %38
  %.not62.us.us.us = icmp slt i32 %39, %16
  %40 = select i1 %.not62.us.us.us, i32 0, i32 %16
  %41 = sub nsw i32 %39, %40
  %42 = sext i32 %41 to i64
  %43 = getelementptr inbounds float, ptr %31, i64 %42
  %44 = load float, ptr %43, align 4, !tbaa !36
  %45 = getelementptr inbounds nuw float, ptr %25, i64 %indvars.iv91
  %46 = load float, ptr %45, align 4, !tbaa !36
  %47 = fmul nsz float %44, %46
  %48 = fpext nsz float %47 to double
  %49 = fadd nsz double %.05463.us.us.us, %48
  %indvars.iv.next92 = add nuw nsw i64 %indvars.iv91, 1
  %exitcond95.not = icmp eq i64 %indvars.iv.next92, %wide.trip.count94
  br i1 %exitcond95.not, label %._crit_edge.us.us.us, label %36, !llvm.loop !80

._crit_edge.us.us.us:                             ; preds = %36
  %50 = fmul nsz double %49, %9
  %51 = fcmp nsz ogt double %50, -1.000000e+00
  %52 = select nsz i1 %51, double %50, double -1.000000e+00
  %53 = fcmp nsz ogt double %52, 1.000000e+00
  %..i.us.us.us = select nsz i1 %53, double 1.000000e+00, double %52
  %54 = fptrunc nsz double %..i.us.us.us to float
  store float %54, ptr %.05667.us.us.us, align 4, !tbaa !36
  %55 = sext i32 %.165.us.us.us to i64
  %56 = getelementptr inbounds float, ptr %31, i64 %55
  store float %32, ptr %56, align 4, !tbaa !36
  %57 = add nsw i32 %.165.us.us.us, 1
  %.not.us.us.us = icmp slt i32 %57, %16
  %58 = select i1 %.not.us.us.us, i32 0, i32 %16
  %59 = sub nsw i32 %57, %58
  %60 = add nuw nsw i32 %.068.us.us.us, 1
  %61 = getelementptr inbounds nuw i8, ptr %.05766.us.us.us, i64 4
  %62 = getelementptr inbounds nuw i8, ptr %.05667.us.us.us, i64 4
  %exitcond96.not = icmp eq i32 %60, %4
  br i1 %exitcond96.not, label %._crit_edge71.split.us.us.us, label %.lr.ph.us.us.us, !llvm.loop !81

._crit_edge71.split.us.us.us:                     ; preds = %._crit_edge.us.us.us
  %indvars.iv.next98 = add nuw nsw i64 %indvars.iv97, 1
  %exitcond101.not = icmp eq i64 %indvars.iv.next98, %wide.trip.count100
  br i1 %exitcond101.not, label %._crit_edge, label %.lr.ph70.us.us, !llvm.loop !82

.lr.ph70.us:                                      ; preds = %.lr.ph70.us.preheader, %._crit_edge71.split.us80
  %indvars.iv = phi i64 [ 0, %.lr.ph70.us.preheader ], [ %indvars.iv.next, %._crit_edge71.split.us80 ]
  %63 = getelementptr inbounds nuw ptr, ptr %2, i64 %indvars.iv
  %64 = load ptr, ptr %63, align 8, !tbaa !74
  %65 = getelementptr inbounds nuw ptr, ptr %3, i64 %indvars.iv
  %66 = load ptr, ptr %65, align 8, !tbaa !74
  %67 = getelementptr inbounds nuw ptr, ptr %1, i64 %indvars.iv
  %68 = load ptr, ptr %67, align 8, !tbaa !74
  br label %69

69:                                               ; preds = %.lr.ph70.us, %69
  %.068.us74 = phi i32 [ 0, %.lr.ph70.us ], [ %83, %69 ]
  %.05667.us75 = phi ptr [ %66, %.lr.ph70.us ], [ %85, %69 ]
  %.05766.us76 = phi ptr [ %64, %.lr.ph70.us ], [ %84, %69 ]
  %.165.us77 = phi i32 [ %19, %.lr.ph70.us ], [ %82, %69 ]
  %70 = load float, ptr %.05766.us76, align 4, !tbaa !36
  %71 = fpext nsz float %70 to double
  %72 = fmul nsz double %12, %71
  %73 = fmul nsz double %72, %9
  %74 = fcmp nsz ogt double %73, -1.000000e+00
  %75 = select nsz i1 %74, double %73, double -1.000000e+00
  %76 = fcmp nsz ogt double %75, 1.000000e+00
  %..i.us78 = select nsz i1 %76, double 1.000000e+00, double %75
  %77 = fptrunc nsz double %..i.us78 to float
  store float %77, ptr %.05667.us75, align 4, !tbaa !36
  %78 = sext i32 %.165.us77 to i64
  %79 = getelementptr inbounds float, ptr %68, i64 %78
  store float %70, ptr %79, align 4, !tbaa !36
  %80 = add nsw i32 %.165.us77, 1
  %.not.us79 = icmp slt i32 %80, %16
  %81 = select i1 %.not.us79, i32 0, i32 %16
  %82 = sub nsw i32 %80, %81
  %83 = add nuw nsw i32 %.068.us74, 1
  %84 = getelementptr inbounds nuw i8, ptr %.05766.us76, i64 4
  %85 = getelementptr inbounds nuw i8, ptr %.05667.us75, i64 4
  %exitcond.not = icmp eq i32 %83, %4
  br i1 %exitcond.not, label %._crit_edge71.split.us80, label %69, !llvm.loop !81

._crit_edge71.split.us80:                         ; preds = %69
  %indvars.iv.next = add nuw nsw i64 %indvars.iv, 1
  %exitcond90.not = icmp eq i64 %indvars.iv.next, %wide.trip.count
  br i1 %exitcond90.not, label %._crit_edge, label %.lr.ph70.us, !llvm.loop !82

._crit_edge:                                      ; preds = %._crit_edge71.split.us80, %._crit_edge71.split.us.us.us, %.lr.ph, %6
  %.058.lcssa = phi i32 [ undef, %6 ], [ %19, %.lr.ph ], [ %59, %._crit_edge71.split.us.us.us ], [ %82, %._crit_edge71.split.us80 ]
  %86 = getelementptr inbounds nuw i8, ptr %0, i64 52
  store i32 %.058.lcssa, ptr %86, align 4, !tbaa !73
  ret void
}